target datalayout = "e-m:e-p270:32:32-p271:32:32-p272:64:64-i64:64-i128:128-f80:128-n8:16:32:64-S128"
target triple = "x86_64-pc-linux-gnu"

@Abc_TtCountGenerate.s_CMasks6 = internal global [3 x i64] [i64 6148914691236517205, i64 3689348814741910323, i64 1085102592571150095], align 16
@.str = private unnamed_addr constant [3 x i8] c"{ \00", align 1
@.str.1 = private unnamed_addr constant [16 x i8] c"ABC_CONST(0x0%d\00", align 1
@.str.2 = private unnamed_addr constant [4 x i8] c"0%d\00", align 1
@.str.3 = private unnamed_addr constant [4 x i8] c")%s\00", align 1
@.str.4 = private unnamed_addr constant [1 x i8] zeroinitializer, align 1
@.str.5 = private unnamed_addr constant [3 x i8] c", \00", align 1
@.str.6 = private unnamed_addr constant [7 x i8] c" },\0A{ \00", align 1

; Function Attrs: nounwind uwtable
define void @Abc_TtCountGenerate() #0 {
  %1 = alloca i32, align 4
  %2 = alloca i32, align 4
  %3 = alloca i32, align 4
  call void @llvm.lifetime.start.p0(i64 4, ptr %1) #5
  call void @llvm.lifetime.start.p0(i64 4, ptr %2) #5
  call void @llvm.lifetime.start.p0(i64 4, ptr %3) #5
  %4 = call i32 (ptr, ...) @printf(ptr noundef @.str)
  store i32 0, ptr %1, align 4, !tbaa !3
  br label %5

5:                                                ; preds = %64, %0
  %6 = load i32, ptr %1, align 4, !tbaa !3
  %7 = icmp slt i32 %6, 256
  br i1 %7, label %8, label %68

8:                                                ; preds = %5
  store i32 0, ptr %2, align 4, !tbaa !3
  br label %9

9:                                                ; preds = %60, %8
  %10 = load i32, ptr %2, align 4, !tbaa !3
  %11 = icmp slt i32 %10, 32
  br i1 %11, label %12, label %63

12:                                               ; preds = %9
  %13 = load i32, ptr %1, align 4, !tbaa !3
  %14 = sext i32 %13 to i64
  %15 = getelementptr inbounds [256 x i32], ptr @Abc_TtCountGenerate.bit_count, i64 0, i64 %14
  %16 = load i32, ptr %15, align 4, !tbaa !3
  %17 = call i32 (ptr, ...) @printf(ptr noundef @.str.1, i32 noundef %16)
  store i32 3, ptr %3, align 4, !tbaa !3
  br label %18

18:                                               ; preds = %34, %12
  %19 = load i32, ptr %3, align 4, !tbaa !3
  %20 = icmp sge i32 %19, 0
  br i1 %20, label %21, label %37

21:                                               ; preds = %18
  %22 = load i32, ptr %2, align 4, !tbaa !3
  %23 = load i32, ptr %3, align 4, !tbaa !3
  %24 = ashr i32 %22, %23
  %25 = and i32 %24, 1
  %26 = icmp eq i32 %25, 0
  %27 = zext i1 %26 to i32
  %28 = load i32, ptr %1, align 4, !tbaa !3
  %29 = sext i32 %28 to i64
  %30 = getelementptr inbounds [256 x i32], ptr @Abc_TtCountGenerate.bit_count, i64 0, i64 %29
  %31 = load i32, ptr %30, align 4, !tbaa !3
  %32 = mul nsw i32 %27, %31
  %33 = call i32 (ptr, ...) @printf(ptr noundef @.str.2, i32 noundef %32)
  br label %34

34:                                               ; preds = %21
  %35 = load i32, ptr %3, align 4, !tbaa !3
  %36 = add nsw i32 %35, -1
  store i32 %36, ptr %3, align 4, !tbaa !3
  br label %18, !llvm.loop !7

37:                                               ; preds = %18
  store i32 2, ptr %3, align 4, !tbaa !3
  br label %38

38:                                               ; preds = %52, %37
  %39 = load i32, ptr %3, align 4, !tbaa !3
  %40 = icmp sge i32 %39, 0
  br i1 %40, label %41, label %55

41:                                               ; preds = %38
  %42 = load i32, ptr %3, align 4, !tbaa !3
  %43 = sext i32 %42 to i64
  %44 = getelementptr inbounds [3 x i64], ptr @Abc_TtCountGenerate.s_CMasks6, i64 0, i64 %43
  %45 = load i64, ptr %44, align 8, !tbaa !9
  %46 = load i32, ptr %1, align 4, !tbaa !3
  %47 = sext i32 %46 to i64
  %48 = and i64 %45, %47
  %49 = getelementptr inbounds nuw [256 x i32], ptr @Abc_TtCountGenerate.bit_count, i64 0, i64 %48
  %50 = load i32, ptr %49, align 4, !tbaa !3
  %51 = call i32 (ptr, ...) @printf(ptr noundef @.str.2, i32 noundef %50)
  br label %52

52:                                               ; preds = %41
  %53 = load i32, ptr %3, align 4, !tbaa !3
  %54 = add nsw i32 %53, -1
  store i32 %54, ptr %3, align 4, !tbaa !3
  br label %38, !llvm.loop !11

55:                                               ; preds = %38
  %56 = load i32, ptr %2, align 4, !tbaa !3
  %57 = icmp eq i32 %56, 31
  %58 = select i1 %57, ptr @.str.4, ptr @.str.5
  %59 = call i32 (ptr, ...) @printf(ptr noundef @.str.3, ptr noundef %58)
  br label %60

60:                                               ; preds = %55
  %61 = load i32, ptr %2, align 4, !tbaa !3
  %62 = add nsw i32 %61, 1
  store i32 %62, ptr %2, align 4, !tbaa !3
  br label %9, !llvm.loop !12

63:                                               ; preds = %9
  br label %64

64:                                               ; preds = %63
  %65 = load i32, ptr %1, align 4, !tbaa !3
  %66 = add nsw i32 %65, 1
  store i32 %66, ptr %1, align 4, !tbaa !3
  %67 = call i32 (ptr, ...) @printf(ptr noundef @.str.6)
  br label %5, !llvm.loop !13

68:                                               ; preds = %5
  call void @llvm.lifetime.end.p0(i64 4, ptr %3) #5
  call void @llvm.lifetime.end.p0(i64 4, ptr %2) #5
  call void @llvm.lifetime.end.p0(i64 4, ptr %1) #5
  ret void
}